; Function Attrs: nounwind uwtable
define dso_local range(i64 0, 4294967296) i64 @be_lo_create(ptr noundef readonly captures(none) %0) local_unnamed_addr #0 {
  %2 = getelementptr inbounds nuw i8, ptr %0, i64 32
  %3 = load i64, ptr %2, align 8
  %4 = trunc i64 %3 to i32
  tail call void @PreventCommandIfReadOnly(ptr noundef nonnull @.str.7) #10
  store i1 true, ptr @lo_cleanup_needed, align 1
  %5 = tail call i32 @inv_create(i32 noundef %4) #10
  %6 = zext i32 %5 to i64
  ret i64 %6
}